target datalayout = "e-m:e-p270:32:32-p271:32:32-p272:64:64-i64:64-i128:128-f80:128-n8:16:32:64-S128"
target triple = "x86_64-pc-linux-gnu"

%"class.std::__1::basic_string" = type { %"class.std::__1::__compressed_pair.10" }
%"class.std::__1::__compressed_pair.10" = type { %"struct.std::__1::__compressed_pair_elem.11" }
%"struct.std::__1::__compressed_pair_elem.11" = type { %"struct.std::__1::basic_string<char>::__rep" }
%"struct.std::__1::basic_string<char>::__rep" = type { %union.anon }
%union.anon = type { %"struct.std::__1::basic_string<char>::__long" }
%"struct.std::__1::basic_string<char>::__long" = type { %struct.anon.12, i64, ptr }
%struct.anon.12 = type { i64 }
%"class.mitsuba::Thread" = type { %"class.mitsuba::Object.base", %"class.std::__1::unique_ptr" }
%"class.mitsuba::Object.base" = type <{ ptr, %"struct.std::__1::atomic.2" }>
%"struct.std::__1::atomic.2" = type { %"struct.std::__1::__atomic_base.3" }
%"struct.std::__1::__atomic_base.3" = type { %"struct.std::__1::__atomic_base.4" }
%"struct.std::__1::__atomic_base.4" = type { %"struct.std::__1::__cxx_atomic_impl.5" }
%"struct.std::__1::__cxx_atomic_impl.5" = type { %"struct.std::__1::__cxx_atomic_base_impl.6" }
%"struct.std::__1::__cxx_atomic_base_impl.6" = type { i32 }
%"class.std::__1::unique_ptr" = type { %"class.std::__1::__compressed_pair.7" }
%"class.std::__1::__compressed_pair.7" = type { %"struct.std::__1::__compressed_pair_elem.8" }
%"struct.std::__1::__compressed_pair_elem.8" = type { ptr }
%"struct.mitsuba::Thread::ThreadPrivate" = type { %"class.std::__1::thread", i64, %"class.std::__1::basic_string", i8, i8, i8, i32, i32, %"class.mitsuba::ref", %"class.mitsuba::ref.17", %"class.mitsuba::ref.18" }
%"class.std::__1::thread" = type { i64 }
%"class.mitsuba::ref" = type { ptr }
%"class.mitsuba::ref.17" = type { ptr }
%"class.mitsuba::ref.18" = type { ptr }
%"struct.std::__1::__atomic_base.1" = type { %"struct.std::__1::__cxx_atomic_impl" }
%"struct.std::__1::__cxx_atomic_impl" = type { %"struct.std::__1::__cxx_atomic_base_impl" }
%"struct.std::__1::__cxx_atomic_base_impl" = type { i32 }
%"struct.std::__1::basic_string<char>::__short" = type { %struct.anon, [0 x i8], [23 x i8] }
%struct.anon = type { i8 }

@_ZN7mitsubaL4selfE = internal thread_local global ptr null, align 8
@_ZN7mitsubaL14this_thread_idE = internal global i32 0, align 4
@_ZN7mitsubaL10thread_ctrE = internal global { { i32 } } zeroinitializer, align 4

; Function Attrs: mustprogress nounwind uwtable
define linkonce_odr hidden noundef nonnull align 8 dereferenceable(24) ptr @_ZNKSt3__122__compressed_pair_elemINS_12basic_stringIcNS_11char_traitsIcEENS_9allocatorIcEEE5__repELi0ELb0EE5__getB8ne190000Ev(ptr noundef nonnull align 8 dereferenceable(24) %0) #1 comdat align 2 {
  %2 = alloca ptr, align 8
  store ptr %0, ptr %2, align 8
  %3 = load ptr, ptr %2, align 8
  %4 = getelementptr inbounds %"struct.std::__1::__compressed_pair_elem.11", ptr %3, i32 0, i32 0
  ret ptr %4
}

; Function Attrs: mustprogress nounwind uwtable
define linkonce_odr hidden noundef ptr @_ZNSt3__114pointer_traitsIPKcE10pointer_toB8ne190000ERS1_(ptr noundef nonnull align 1 dereferenceable(1) %0) #1 comdat align 2 {
  %2 = alloca ptr, align 8
  store ptr %0, ptr %2, align 8
  %3 = load ptr, ptr %2, align 8
  ret ptr %3
}

; Function Attrs: mustprogress nounwind uwtable
define linkonce_odr hidden noundef nonnull align 8 dereferenceable(24) ptr @_ZNKSt3__117__compressed_pairINS_12basic_stringIcNS_11char_traitsIcEENS_9allocatorIcEEE5__repES5_E5firstB8ne190000Ev(ptr noundef nonnull align 8 dereferenceable(24) %0) #1 comdat align 2 {
  %2 = alloca ptr, align 8
  store ptr %0, ptr %2, align 8
  %3 = load ptr, ptr %2, align 8
  %4 = call noundef nonnull align 8 dereferenceable(24) ptr @_ZNKSt3__122__compressed_pair_elemINS_12basic_stringIcNS_11char_traitsIcEENS_9allocatorIcEEE5__repELi0ELb0EE5__getB8ne190000Ev(ptr noundef nonnull align 8 dereferenceable(24) %3) #2
  ret ptr %4
}

; Function Attrs: mustprogress nounwind uwtable
define linkonce_odr hidden noundef ptr @_ZNKSt3__112basic_stringIcNS_11char_traitsIcEENS_9allocatorIcEEE19__get_short_pointerB8ne190000Ev(ptr noundef nonnull align 8 dereferenceable(24) %0) #1 comdat align 2 {
  %2 = alloca ptr, align 8
  store ptr %0, ptr %2, align 8
  %3 = load ptr, ptr %2, align 8
  %4 = getelementptr inbounds %"class.std::__1::basic_string", ptr %3, i32 0, i32 0
  %5 = call noundef nonnull align 8 dereferenceable(24) ptr @_ZNKSt3__117__compressed_pairINS_12basic_stringIcNS_11char_traitsIcEENS_9allocatorIcEEE5__repES5_E5firstB8ne190000Ev(ptr noundef nonnull align 8 dereferenceable(24) %4) #2
  %6 = getelementptr inbounds %"struct.std::__1::basic_string<char>::__rep", ptr %5, i32 0, i32 0
  %7 = getelementptr inbounds %"struct.std::__1::basic_string<char>::__short", ptr %6, i32 0, i32 2
  %8 = getelementptr inbounds [23 x i8], ptr %7, i64 0, i64 0
  %9 = call noundef ptr @_ZNSt3__114pointer_traitsIPKcE10pointer_toB8ne190000ERS1_(ptr noundef nonnull align 1 dereferenceable(1) %8) #2
  ret ptr %9
}

; Function Attrs: mustprogress nounwind uwtable
define linkonce_odr hidden noundef ptr @_ZNKSt3__112basic_stringIcNS_11char_traitsIcEENS_9allocatorIcEEE18__get_long_pointerB8ne190000Ev(ptr noundef nonnull align 8 dereferenceable(24) %0) #1 comdat align 2 {
  %2 = alloca ptr, align 8
  store ptr %0, ptr %2, align 8
  %3 = load ptr, ptr %2, align 8
  %4 = getelementptr inbounds %"class.std::__1::basic_string", ptr %3, i32 0, i32 0
  %5 = call noundef nonnull align 8 dereferenceable(24) ptr @_ZNKSt3__117__compressed_pairINS_12basic_stringIcNS_11char_traitsIcEENS_9allocatorIcEEE5__repES5_E5firstB8ne190000Ev(ptr noundef nonnull align 8 dereferenceable(24) %4) #2
  %6 = getelementptr inbounds %"struct.std::__1::basic_string<char>::__rep", ptr %5, i32 0, i32 0
  %7 = getelementptr inbounds %"struct.std::__1::basic_string<char>::__long", ptr %6, i32 0, i32 2
  %8 = load ptr, ptr %7, align 8
  ret ptr %8
}

; Function Attrs: mustprogress nounwind uwtable
define linkonce_odr hidden noundef zeroext i1 @_ZNKSt3__112basic_stringIcNS_11char_traitsIcEENS_9allocatorIcEEE9__is_longB8ne190000Ev(ptr noundef nonnull align 8 dereferenceable(24) %0) #1 comdat align 2 {
  %2 = alloca ptr, align 8
  store ptr %0, ptr %2, align 8
  %3 = load ptr, ptr %2, align 8
  %4 = getelementptr inbounds %"class.std::__1::basic_string", ptr %3, i32 0, i32 0
  %5 = call noundef nonnull align 8 dereferenceable(24) ptr @_ZNKSt3__117__compressed_pairINS_12basic_stringIcNS_11char_traitsIcEENS_9allocatorIcEEE5__repES5_E5firstB8ne190000Ev(ptr noundef nonnull align 8 dereferenceable(24) %4) #2
  %6 = getelementptr inbounds %"struct.std::__1::basic_string<char>::__rep", ptr %5, i32 0, i32 0
  %7 = getelementptr inbounds %"struct.std::__1::basic_string<char>::__short", ptr %6, i32 0, i32 0
  %8 = load i8, ptr %7, align 8
  %9 = and i8 %8, 1
  %10 = icmp ne i8 %9, 0
  ret i1 %10
}

; Function Attrs: mustprogress nounwind uwtable
define linkonce_odr hidden noundef ptr @_ZNSt3__112__to_addressB8ne190000IKcEEPT_S3_(ptr noundef %0) #1 comdat {
  %2 = alloca ptr, align 8
  store ptr %0, ptr %2, align 8
  %3 = load ptr, ptr %2, align 8
  ret ptr %3
}

; Function Attrs: mustprogress nounwind uwtable
define linkonce_odr hidden noundef ptr @_ZNKSt3__112basic_stringIcNS_11char_traitsIcEENS_9allocatorIcEEE13__get_pointerB8ne190000Ev(ptr noundef nonnull align 8 dereferenceable(24) %0) #1 comdat align 2 {
  %2 = alloca ptr, align 8
  store ptr %0, ptr %2, align 8
  %3 = load ptr, ptr %2, align 8
  %4 = call noundef zeroext i1 @_ZNKSt3__112basic_stringIcNS_11char_traitsIcEENS_9allocatorIcEEE9__is_longB8ne190000Ev(ptr noundef nonnull align 8 dereferenceable(24) %3) #2
  br i1 %4, label %5, label %7

5:                                                ; preds = %1
  %6 = call noundef ptr @_ZNKSt3__112basic_stringIcNS_11char_traitsIcEENS_9allocatorIcEEE18__get_long_pointerB8ne190000Ev(ptr noundef nonnull align 8 dereferenceable(24) %3) #2
  br label %9

7:                                                ; preds = %1
  %8 = call noundef ptr @_ZNKSt3__112basic_stringIcNS_11char_traitsIcEENS_9allocatorIcEEE19__get_short_pointerB8ne190000Ev(ptr noundef nonnull align 8 dereferenceable(24) %3) #2
  br label %9

9:                                                ; preds = %7, %5
  %10 = phi ptr [ %6, %5 ], [ %8, %7 ]
  ret ptr %10
}

; Function Attrs: mustprogress nounwind uwtable
define linkonce_odr hidden noundef nonnull align 8 dereferenceable(8) ptr @_ZNKSt3__122__compressed_pair_elemIPN7mitsuba6Thread13ThreadPrivateELi0ELb0EE5__getB8ne190000Ev(ptr noundef nonnull align 8 dereferenceable(8) %0) #1 comdat align 2 {
  %2 = alloca ptr, align 8
  store ptr %0, ptr %2, align 8
  %3 = load ptr, ptr %2, align 8
  %4 = getelementptr inbounds %"struct.std::__1::__compressed_pair_elem.8", ptr %3, i32 0, i32 0
  ret ptr %4
}

; Function Attrs: mustprogress nounwind uwtable
define linkonce_odr hidden noundef i32 @_ZNSt3__122__cxx_atomic_fetch_addB8ne190000IjEET_PNS_22__cxx_atomic_base_implIS1_EES1_NS_12memory_orderE(ptr noundef %0, i32 noundef %1, i32 noundef %2) #1 comdat {
  %4 = alloca ptr, align 8
  %5 = alloca i32, align 4
  %6 = alloca i32, align 4
  %7 = alloca i32, align 4
  %8 = alloca i32, align 4
  store ptr %0, ptr %4, align 8
  store i32 %1, ptr %5, align 4
  store i32 %2, ptr %6, align 4
  %9 = load ptr, ptr %4, align 8
  %10 = getelementptr inbounds %"struct.std::__1::__cxx_atomic_base_impl", ptr %9, i32 0, i32 0
  %11 = load i32, ptr %6, align 4
  %12 = load i32, ptr %5, align 4
  store i32 %12, ptr %7, align 4
  switch i32 %11, label %13 [
    i32 1, label %16
    i32 2, label %16
    i32 3, label %19
    i32 4, label %22
    i32 5, label %25
  ]

13:                                               ; preds = %3
  %14 = load i32, ptr %7, align 4
  %15 = atomicrmw add ptr %10, i32 %14 monotonic, align 4
  store i32 %15, ptr %8, align 4
  br label %28

16:                                               ; preds = %3, %3
  %17 = load i32, ptr %7, align 4
  %18 = atomicrmw add ptr %10, i32 %17 acquire, align 4
  store i32 %18, ptr %8, align 4
  br label %28

19:                                               ; preds = %3
  %20 = load i32, ptr %7, align 4
  %21 = atomicrmw add ptr %10, i32 %20 release, align 4
  store i32 %21, ptr %8, align 4
  br label %28

22:                                               ; preds = %3
  %23 = load i32, ptr %7, align 4
  %24 = atomicrmw add ptr %10, i32 %23 acq_rel, align 4
  store i32 %24, ptr %8, align 4
  br label %28

25:                                               ; preds = %3
  %26 = load i32, ptr %7, align 4
  %27 = atomicrmw add ptr %10, i32 %26 seq_cst, align 4
  store i32 %27, ptr %8, align 4
  br label %28

28:                                               ; preds = %25, %22, %19, %16, %13
  %29 = load i32, ptr %8, align 4
  ret i32 %29
}

; Function Attrs: mustprogress nounwind uwtable
define linkonce_odr hidden noundef ptr @_ZNKSt3__112basic_stringIcNS_11char_traitsIcEENS_9allocatorIcEEE4dataB8ne190000Ev(ptr noundef nonnull align 8 dereferenceable(24) %0) #1 comdat align 2 {
  %2 = alloca ptr, align 8
  store ptr %0, ptr %2, align 8
  %3 = load ptr, ptr %2, align 8
  %4 = call noundef ptr @_ZNKSt3__112basic_stringIcNS_11char_traitsIcEENS_9allocatorIcEEE13__get_pointerB8ne190000Ev(ptr noundef nonnull align 8 dereferenceable(24) %3) #2
  %5 = call noundef ptr @_ZNSt3__112__to_addressB8ne190000IKcEEPT_S3_(ptr noundef %4) #2
  ret ptr %5
}

; Function Attrs: mustprogress nounwind uwtable
define linkonce_odr hidden noundef nonnull align 8 dereferenceable(8) ptr @_ZNKSt3__117__compressed_pairIPN7mitsuba6Thread13ThreadPrivateENS_14default_deleteIS3_EEE5firstB8ne190000Ev(ptr noundef nonnull align 8 dereferenceable(8) %0) #1 comdat align 2 {
  %2 = alloca ptr, align 8
  store ptr %0, ptr %2, align 8
  %3 = load ptr, ptr %2, align 8
  %4 = call noundef nonnull align 8 dereferenceable(8) ptr @_ZNKSt3__122__compressed_pair_elemIPN7mitsuba6Thread13ThreadPrivateELi0ELb0EE5__getB8ne190000Ev(ptr noundef nonnull align 8 dereferenceable(8) %3) #2
  ret ptr %4
}

; Function Attrs: mustprogress nounwind uwtable
define linkonce_odr hidden noundef i32 @_ZNSt3__113__atomic_baseIjLb1EE9fetch_addB8ne190000EjNS_12memory_orderE(ptr noundef nonnull align 4 dereferenceable(4) %0, i32 noundef %1, i32 noundef %2) #1 comdat align 2 {
  %4 = alloca ptr, align 8
  %5 = alloca i32, align 4
  %6 = alloca i32, align 4
  store ptr %0, ptr %4, align 8
  store i32 %1, ptr %5, align 4
  store i32 %2, ptr %6, align 4
  %7 = load ptr, ptr %4, align 8
  %8 = getelementptr inbounds %"struct.std::__1::__atomic_base.1", ptr %7, i32 0, i32 0
  %9 = load i32, ptr %5, align 4
  %10 = load i32, ptr %6, align 4
  %11 = call noundef i32 @_ZNSt3__122__cxx_atomic_fetch_addB8ne190000IjEET_PNS_22__cxx_atomic_base_implIS1_EES1_NS_12memory_orderE(ptr noundef %8, i32 noundef %9, i32 noundef %10) #2
  ret i32 %11
}

; Function Attrs: mustprogress nounwind uwtable
define linkonce_odr hidden noundef ptr @_ZNKSt3__112basic_stringIcNS_11char_traitsIcEENS_9allocatorIcEEE5c_strB8ne190000Ev(ptr noundef nonnull align 8 dereferenceable(24) %0) #1 comdat align 2 {
  %2 = alloca ptr, align 8
  store ptr %0, ptr %2, align 8
  %3 = load ptr, ptr %2, align 8
  %4 = call noundef ptr @_ZNKSt3__112basic_stringIcNS_11char_traitsIcEENS_9allocatorIcEEE4dataB8ne190000Ev(ptr noundef nonnull align 8 dereferenceable(24) %3) #2
  ret ptr %4
}

; Function Attrs: mustprogress nounwind uwtable
define noundef nonnull align 8 dereferenceable(24) ptr @_ZNK7mitsuba6Thread4nameEv(ptr noundef nonnull align 8 dereferenceable(24) %0) #1 align 2 {
  %2 = alloca ptr, align 8
  store ptr %0, ptr %2, align 8
  %3 = load ptr, ptr %2, align 8
  %4 = getelementptr inbounds %"class.mitsuba::Thread", ptr %3, i32 0, i32 1
  %5 = call noundef ptr @_ZNKSt3__110unique_ptrIN7mitsuba6Thread13ThreadPrivateENS_14default_deleteIS3_EEEptB8ne190000Ev(ptr noundef nonnull align 8 dereferenceable(8) %4) #2
  %6 = getelementptr inbounds %"struct.mitsuba::Thread::ThreadPrivate", ptr %5, i32 0, i32 2
  ret ptr %6
}

; Function Attrs: mustprogress nounwind uwtable
define linkonce_odr hidden noundef ptr @_ZNKSt3__110unique_ptrIN7mitsuba6Thread13ThreadPrivateENS_14default_deleteIS3_EEEptB8ne190000Ev(ptr noundef nonnull align 8 dereferenceable(8) %0) #1 comdat align 2 {
  %2 = alloca ptr, align 8
  store ptr %0, ptr %2, align 8
  %3 = load ptr, ptr %2, align 8
  %4 = getelementptr inbounds %"class.std::__1::unique_ptr", ptr %3, i32 0, i32 0
  %5 = call noundef nonnull align 8 dereferenceable(8) ptr @_ZNKSt3__117__compressed_pairIPN7mitsuba6Thread13ThreadPrivateENS_14default_deleteIS3_EEE5firstB8ne190000Ev(ptr noundef nonnull align 8 dereferenceable(8) %4) #2
  %6 = load ptr, ptr %5, align 8
  ret ptr %6
}

; Function Attrs: mustprogress nounwind uwtable
define linkonce_odr hidden noundef i32 @_ZNSt3__113__atomic_baseIjLb1EEppB8ne190000Ei(ptr noundef nonnull align 4 dereferenceable(4) %0, i32 noundef %1) #1 comdat align 2 {
  %3 = alloca ptr, align 8
  %4 = alloca i32, align 4
  store ptr %0, ptr %3, align 8
  store i32 %1, ptr %4, align 4
  %5 = load ptr, ptr %3, align 8
  %6 = call noundef i32 @_ZNSt3__113__atomic_baseIjLb1EE9fetch_addB8ne190000EjNS_12memory_orderE(ptr noundef nonnull align 4 dereferenceable(4) %5, i32 noundef 1, i32 noundef 5) #2
  ret i32 %6
}

; Function Attrs: mustprogress uwtable
define noundef zeroext i1 @_ZN7mitsuba6Thread24register_external_threadERKNSt3__112basic_stringIcNS1_11char_traitsIcEENS1_9allocatorIcEEEE(ptr noundef nonnull align 8 dereferenceable(24) %0) #3 align 2 personality ptr @__gxx_personality_v0 {
  %2 = alloca ptr, align 8
  %3 = alloca i32, align 4
  %4 = alloca ptr, align 8
  %5 = alloca i32, align 4
  %6 = alloca ptr, align 8
  store ptr %0, ptr %2, align 8
  %7 = call noundef i32 @_ZNSt3__113__atomic_baseIjLb1EEppB8ne190000Ei(ptr noundef nonnull align 4 dereferenceable(4) @_ZN7mitsubaL10thread_ctrE, i32 noundef 0) #2
  store i32 %7, ptr %3, align 4
  %8 = call noalias noundef nonnull ptr @_Znwm(i64 noundef 24) #23
  %9 = load ptr, ptr %2, align 8
  invoke void @_ZN7mitsuba12WorkerThreadC2ERKNSt3__112basic_stringIcNS1_11char_traitsIcEENS1_9allocatorIcEEEE(ptr noundef nonnull align 8 dereferenceable(24) %8, ptr noundef nonnull align 8 dereferenceable(24) %9)
          to label %10 unwind label %40

10:                                               ; preds = %1
  %11 = call align 8 ptr @llvm.threadlocal.address.p0(ptr align 8 @_ZN7mitsubaL4selfE)
  store ptr %8, ptr %11, align 8
  %12 = call i64 @pthread_self() #25
  %13 = call align 8 ptr @llvm.threadlocal.address.p0(ptr align 8 @_ZN7mitsubaL4selfE)
  %14 = load ptr, ptr %13, align 8
  %15 = getelementptr inbounds %"class.mitsuba::Thread", ptr %14, i32 0, i32 1
  %16 = call noundef ptr @_ZNKSt3__110unique_ptrIN7mitsuba6Thread13ThreadPrivateENS_14default_deleteIS3_EEEptB8ne190000Ev(ptr noundef nonnull align 8 dereferenceable(8) %15) #2
  %17 = getelementptr inbounds %"struct.mitsuba::Thread::ThreadPrivate", ptr %16, i32 0, i32 1
  store i64 %12, ptr %17, align 8
  %18 = load i32, ptr @_ZN7mitsubaL14this_thread_idE, align 4
  %19 = load i32, ptr %3, align 4
  %20 = zext i32 %19 to i64
  %21 = inttoptr i64 %20 to ptr
  %22 = call i32 @pthread_setspecific(i32 noundef %18, ptr noundef %21) #2
  %23 = call align 8 ptr @llvm.threadlocal.address.p0(ptr align 8 @_ZN7mitsubaL4selfE)
  %24 = load ptr, ptr %23, align 8
  %25 = getelementptr inbounds %"class.mitsuba::Thread", ptr %24, i32 0, i32 1
  %26 = call noundef ptr @_ZNKSt3__110unique_ptrIN7mitsuba6Thread13ThreadPrivateENS_14default_deleteIS3_EEEptB8ne190000Ev(ptr noundef nonnull align 8 dereferenceable(8) %25) #2
  %27 = getelementptr inbounds %"struct.mitsuba::Thread::ThreadPrivate", ptr %26, i32 0, i32 3
  store i8 1, ptr %27, align 8
  %28 = call align 8 ptr @llvm.threadlocal.address.p0(ptr align 8 @_ZN7mitsubaL4selfE)
  %29 = load ptr, ptr %28, align 8
  %30 = getelementptr inbounds %"class.mitsuba::Thread", ptr %29, i32 0, i32 1
  %31 = call noundef ptr @_ZNKSt3__110unique_ptrIN7mitsuba6Thread13ThreadPrivateENS_14default_deleteIS3_EEEptB8ne190000Ev(ptr noundef nonnull align 8 dereferenceable(8) %30) #2
  %32 = getelementptr inbounds %"struct.mitsuba::Thread::ThreadPrivate", ptr %31, i32 0, i32 4
  store i8 1, ptr %32, align 1
  %33 = call align 8 ptr @llvm.threadlocal.address.p0(ptr align 8 @_ZN7mitsubaL4selfE)
  %34 = load ptr, ptr %33, align 8
  %35 = call noundef nonnull align 8 dereferenceable(24) ptr @_ZNK7mitsuba6Thread4nameEv(ptr noundef nonnull align 8 dereferenceable(24) %34)
  store ptr %35, ptr %6, align 8
  %36 = call i64 @pthread_self() #25
  %37 = load ptr, ptr %6, align 8
  %38 = call noundef ptr @_ZNKSt3__112basic_stringIcNS_11char_traitsIcEENS_9allocatorIcEEE5c_strB8ne190000Ev(ptr noundef nonnull align 8 dereferenceable(24) %37) #2
  %39 = call i32 @pthread_setname_np(i64 noundef %36, ptr noundef %38) #2
  ret i1 true

40:                                               ; preds = %1
  %41 = landingpad { ptr, i32 }
          cleanup
  %42 = extractvalue { ptr, i32 } %41, 0
  store ptr %42, ptr %4, align 8
  %43 = extractvalue { ptr, i32 } %41, 1
  store i32 %43, ptr %5, align 4
  call void @_ZdlPv(ptr noundef %8) #24
  br label %44

44:                                               ; preds = %40
  %45 = load ptr, ptr %4, align 8
  %46 = load i32, ptr %5, align 4
  %47 = insertvalue { ptr, i32 } poison, ptr %45, 0
  %48 = insertvalue { ptr, i32 } %47, i32 %46, 1
  resume { ptr, i32 } %48
}