; Function Attrs: mustprogress uwtable
define noundef zeroext i1 @_ZN7mitsuba6Thread24register_external_threadERKNSt3__112basic_stringIcNS1_11char_traitsIcEENS1_9allocatorIcEEEE(ptr noundef nonnull align 8 dereferenceable(24) %0) local_unnamed_addr #4 align 2 personality ptr @__gxx_personality_v0 {
  %2 = atomicrmw add ptr @_ZN7mitsubaL10thread_ctrE, i32 1 seq_cst, align 4
  %3 = tail call noalias noundef nonnull dereferenceable(24) ptr @_Znwm(i64 noundef 24) #32
  invoke void @_ZN7mitsuba12WorkerThreadC2ERKNSt3__112basic_stringIcNS1_11char_traitsIcEENS1_9allocatorIcEEEE(ptr noundef nonnull align 8 dereferenceable(24) %3, ptr noundef nonnull align 8 dereferenceable(24) %0)
          to label %4 unwind label %33

4:                                                ; preds = %1
  %5 = tail call align 8 ptr @llvm.threadlocal.address.p0(ptr align 8 @_ZN7mitsubaL4selfE)
  store ptr %3, ptr %5, align 8
  %6 = tail call i64 @pthread_self() #34
  %7 = getelementptr inbounds i8, ptr %3, i64 16
  %8 = load ptr, ptr %7, align 8
  %9 = getelementptr inbounds i8, ptr %8, i64 8
  store i64 %6, ptr %9, align 8
  %10 = load i32, ptr @_ZN7mitsubaL14this_thread_idE, align 4
  %11 = zext i32 %2 to i64
  %12 = inttoptr i64 %11 to ptr
  %13 = tail call i32 @pthread_setspecific(i32 noundef %10, ptr noundef %12) #3
  %14 = load ptr, ptr %5, align 8
  %15 = getelementptr inbounds i8, ptr %14, i64 16
  %16 = load ptr, ptr %15, align 8
  %17 = getelementptr inbounds i8, ptr %16, i64 40
  store i8 1, ptr %17, align 8
  %18 = load ptr, ptr %5, align 8
  %19 = getelementptr inbounds i8, ptr %18, i64 16
  %20 = load ptr, ptr %19, align 8
  %21 = getelementptr inbounds i8, ptr %20, i64 41
  store i8 1, ptr %21, align 1
  %22 = load ptr, ptr %5, align 8
  %23 = getelementptr inbounds i8, ptr %22, i64 16
  %24 = load ptr, ptr %23, align 8
  %25 = getelementptr inbounds i8, ptr %24, i64 16
  %26 = load i8, ptr %25, align 8
  %27 = and i8 %26, 1
  %.not.i.i.i = icmp eq i8 %27, 0
  %28 = getelementptr inbounds i8, ptr %24, i64 32
  %29 = load ptr, ptr %28, align 8
  %30 = getelementptr inbounds i8, ptr %24, i64 17
  %31 = select i1 %.not.i.i.i, ptr %30, ptr %29
  %32 = tail call i32 @pthread_setname_np(i64 noundef %6, ptr noundef %31) #3
  ret i1 true

33:                                               ; preds = %1
  %34 = landingpad { ptr, i32 }
          cleanup
  tail call void @_ZdlPv(ptr noundef nonnull %3) #31
  resume { ptr, i32 } %34
}